; ModuleID = '15/2194.cpp'
source_filename = "15/2194.cpp"
target datalayout = "e-m:e-p270:32:32-p271:32:32-p272:64:64-i64:64-f80:128-n8:16:32:64-S128"
target triple = "x86_64-pc-linux-gnu"

%"class.std::ios_base::Init" = type { i8 }
%"class.std::basic_istream" = type { i32 (...)**, i64, %"class.std::basic_ios" }
%"class.std::basic_ios" = type { %"class.std::ios_base", %"class.std::basic_ostream"*, i8, i8, %"class.std::basic_streambuf"*, %"class.std::ctype"*, %"class.std::num_put"*, %"class.std::num_get"* }
%"class.std::ios_base" = type { i32 (...)**, i64, i64, i32, i32, i32, %"struct.std::ios_base::_Callback_list"*, %"struct.std::ios_base::_Words", [8 x %"struct.std::ios_base::_Words"], i32, %"struct.std::ios_base::_Words"*, %"class.std::locale" }
%"struct.std::ios_base::_Callback_list" = type { %"struct.std::ios_base::_Callback_list"*, void (i32, %"class.std::ios_base"*, i32)*, i32, i32 }
%"struct.std::ios_base::_Words" = type { i8*, i64 }
%"class.std::locale" = type { %"class.std::locale::_Impl"* }
%"class.std::locale::_Impl" = type { i32, %"class.std::locale::facet"**, i64, %"class.std::locale::facet"**, i8** }
%"class.std::locale::facet" = type <{ i32 (...)**, i32, [4 x i8] }>
%"class.std::basic_ostream" = type { i32 (...)**, %"class.std::basic_ios" }
%"class.std::basic_streambuf" = type { i32 (...)**, i8*, i8*, i8*, i8*, i8*, i8*, %"class.std::locale" }
%"class.std::ctype" = type <{ %"class.std::locale::facet.base", [4 x i8], %struct.__locale_struct*, i8, [7 x i8], i32*, i32*, i16*, i8, [256 x i8], [256 x i8], i8, [6 x i8] }>
%"class.std::locale::facet.base" = type <{ i32 (...)**, i32 }>
%struct.__locale_struct = type { [13 x %struct.__locale_data*], i16*, i32*, i32*, [13 x i8*] }
%struct.__locale_data = type opaque
%"class.std::num_put" = type { %"class.std::locale::facet.base", [4 x i8] }
%"class.std::num_get" = type { %"class.std::locale::facet.base", [4 x i8] }

@_ZStL8__ioinit = internal global %"class.std::ios_base::Init" zeroinitializer, align 1
@__dso_handle = external hidden global i8
@num = dso_local global [1001 x [1001 x i32]] zeroinitializer, align 16
@n = dso_local global i32 0, align 4
@_ZSt3cin = external dso_local global %"class.std::basic_istream", align 8
@_ZSt4cout = external dso_local global %"class.std::basic_ostream", align 8
@llvm.global_ctors = appending global [1 x { i32, void ()*, i8* }] [{ i32, void ()*, i8* } { i32 65535, void ()* @_GLOBAL__sub_I_2194.cpp, i8* null }]

; Function Attrs: noinline uwtable
define internal void @__cxx_global_var_init() #0 section ".text.startup" {
  call void @_ZNSt8ios_base4InitC1Ev(%"class.std::ios_base::Init"* @_ZStL8__ioinit)
  %1 = call i32 @__cxa_atexit(void (i8*)* bitcast (void (%"class.std::ios_base::Init"*)* @_ZNSt8ios_base4InitD1Ev to void (i8*)*), i8* getelementptr inbounds (%"class.std::ios_base::Init", %"class.std::ios_base::Init"* @_ZStL8__ioinit, i32 0, i32 0), i8* @__dso_handle) #3
  ret void
}

declare dso_local void @_ZNSt8ios_base4InitC1Ev(%"class.std::ios_base::Init"*) unnamed_addr #1

; Function Attrs: nounwind
declare dso_local void @_ZNSt8ios_base4InitD1Ev(%"class.std::ios_base::Init"*) unnamed_addr #2

; Function Attrs: nounwind
declare dso_local i32 @__cxa_atexit(void (i8*)*, i8*, i8*) #3

; Function Attrs: noinline norecurse uwtable
define dso_local i32 @main() #4 {
  %1 = alloca i32, align 4
  %2 = alloca i32, align 4
  %3 = alloca i32, align 4
  %4 = alloca i32, align 4
  %5 = alloca i32, align 4
  store i32 0, i32* %1, align 4
  store i32 0, i32* %4, align 4
  store i32 0, i32* %5, align 4
  %6 = call dereferenceable(280) %"class.std::basic_istream"* @_ZNSirsERi(%"class.std::basic_istream"* @_ZSt3cin, i32* dereferenceable(4) @n)
  store i32 0, i32* %2, align 4
  br label %7

7:                                                ; preds = %28, %0
  %8 = load i32, i32* %2, align 4
  %9 = load i32, i32* @n, align 4
  %10 = icmp slt i32 %8, %9
  br i1 %10, label %11, label %31

11:                                               ; preds = %7
  store i32 0, i32* %3, align 4
  br label %12

12:                                               ; preds = %24, %11
  %13 = load i32, i32* %3, align 4
  %14 = load i32, i32* @n, align 4
  %15 = icmp slt i32 %13, %14
  br i1 %15, label %16, label %27

16:                                               ; preds = %12
  %17 = load i32, i32* %2, align 4
  %18 = sext i32 %17 to i64
  %19 = getelementptr inbounds [1001 x [1001 x i32]], [1001 x [1001 x i32]]* @num, i64 0, i64 %18
  %20 = load i32, i32* %3, align 4
  %21 = sext i32 %20 to i64
  %22 = getelementptr inbounds [1001 x i32], [1001 x i32]* %19, i64 0, i64 %21
  %23 = call dereferenceable(280) %"class.std::basic_istream"* @_ZNSirsERi(%"class.std::basic_istream"* @_ZSt3cin, i32* dereferenceable(4) %22)
  br label %24

24:                                               ; preds = %16
  %25 = load i32, i32* %3, align 4
  %26 = add nsw i32 %25, 1
  store i32 %26, i32* %3, align 4
  br label %12

27:                                               ; preds = %12
  br label %28

28:                                               ; preds = %27
  %29 = load i32, i32* %2, align 4
  %30 = add nsw i32 %29, 1
  store i32 %30, i32* %2, align 4
  br label %7

31:                                               ; preds = %7
  store i32 0, i32* %2, align 4
  br label %32

32:                                               ; preds = %77, %31
  %33 = load i32, i32* %2, align 4
  %34 = load i32, i32* @n, align 4
  %35 = icmp slt i32 %33, %34
  br i1 %35, label %36, label %80

36:                                               ; preds = %32
  store i32 0, i32* %3, align 4
  br label %37

37:                                               ; preds = %73, %36
  %38 = load i32, i32* %3, align 4
  %39 = load i32, i32* @n, align 4
  %40 = icmp slt i32 %38, %39
  br i1 %40, label %41, label %76

41:                                               ; preds = %37
  %42 = load i32, i32* %2, align 4
  %43 = sext i32 %42 to i64
  %44 = getelementptr inbounds [1001 x [1001 x i32]], [1001 x [1001 x i32]]* @num, i64 0, i64 %43
  %45 = load i32, i32* %3, align 4
  %46 = sext i32 %45 to i64
  %47 = getelementptr inbounds [1001 x i32], [1001 x i32]* %44, i64 0, i64 %46
  %48 = load i32, i32* %47, align 4
  %49 = icmp eq i32 %48, 255
  br i1 %49, label %50, label %66

50:                                               ; preds = %41
  %51 = load i32, i32* %2, align 4
  %52 = load i32, i32* %3, align 4
  %53 = call i32 @_Z8zhongliuiiii(i32 %51, i32 %52, i32 0, i32 1)
  %54 = load i32, i32* %2, align 4
  %55 = load i32, i32* %3, align 4
  %56 = call i32 @_Z8zhongliuiiii(i32 %54, i32 %55, i32 0, i32 -1)
  %57 = add nsw i32 %53, %56
  %58 = load i32, i32* %2, align 4
  %59 = load i32, i32* %3, align 4
  %60 = call i32 @_Z8zhongliuiiii(i32 %58, i32 %59, i32 1, i32 0)
  %61 = add nsw i32 %57, %60
  %62 = load i32, i32* %2, align 4
  %63 = load i32, i32* %3, align 4
  %64 = call i32 @_Z8zhongliuiiii(i32 %62, i32 %63, i32 -1, i32 0)
  %65 = add nsw i32 %61, %64
  store i32 %65, i32* %4, align 4
  br label %66

66:                                               ; preds = %50, %41
  %67 = load i32, i32* %4, align 4
  %68 = icmp eq i32 %67, 4
  br i1 %68, label %69, label %72

69:                                               ; preds = %66
  %70 = load i32, i32* %5, align 4
  %71 = add nsw i32 %70, 1
  store i32 %71, i32* %5, align 4
  br label %72

72:                                               ; preds = %69, %66
  store i32 0, i32* %4, align 4
  br label %73

73:                                               ; preds = %72
  %74 = load i32, i32* %3, align 4
  %75 = add nsw i32 %74, 1
  store i32 %75, i32* %3, align 4
  br label %37

76:                                               ; preds = %37
  br label %77

77:                                               ; preds = %76
  %78 = load i32, i32* %2, align 4
  %79 = add nsw i32 %78, 1
  store i32 %79, i32* %2, align 4
  br label %32

80:                                               ; preds = %32
  %81 = load i32, i32* %5, align 4
  %82 = call dereferenceable(272) %"class.std::basic_ostream"* @_ZNSolsEi(%"class.std::basic_ostream"* @_ZSt4cout, i32 %81)
  %83 = call dereferenceable(280) %"class.std::basic_istream"* @_ZNSirsERi(%"class.std::basic_istream"* @_ZSt3cin, i32* dereferenceable(4) %2)
  ret i32 0
}

declare dso_local dereferenceable(280) %"class.std::basic_istream"* @_ZNSirsERi(%"class.std::basic_istream"*, i32* dereferenceable(4)) #1

; Function Attrs: noinline uwtable
define dso_local i32 @_Z8zhongliuiiii(i32 %0, i32 %1, i32 %2, i32 %3) #0 {
  %5 = alloca i32, align 4
  %6 = alloca i32, align 4
  %7 = alloca i32, align 4
  %8 = alloca i32, align 4
  %9 = alloca i32, align 4
  store i32 %0, i32* %6, align 4
  store i32 %1, i32* %7, align 4
  store i32 %2, i32* %8, align 4
  store i32 %3, i32* %9, align 4
  %10 = load i32, i32* %6, align 4
  %11 = icmp slt i32 %10, 0
  br i1 %11, label %23, label %12

12:                                               ; preds = %4
  %13 = load i32, i32* %7, align 4
  %14 = icmp slt i32 %13, 0
  br i1 %14, label %23, label %15

15:                                               ; preds = %12
  %16 = load i32, i32* %6, align 4
  %17 = load i32, i32* @n, align 4
  %18 = icmp sge i32 %16, %17
  br i1 %18, label %23, label %19

19:                                               ; preds = %15
  %20 = load i32, i32* %7, align 4
  %21 = load i32, i32* @n, align 4
  %22 = icmp sge i32 %20, %21
  br i1 %22, label %23, label %24

23:                                               ; preds = %19, %15, %12, %4
  store i32 0, i32* %5, align 4
  br label %44

24:                                               ; preds = %19
  %25 = load i32, i32* %6, align 4
  %26 = sext i32 %25 to i64
  %27 = getelementptr inbounds [1001 x [1001 x i32]], [1001 x [1001 x i32]]* @num, i64 0, i64 %26
  %28 = load i32, i32* %7, align 4
  %29 = sext i32 %28 to i64
  %30 = getelementptr inbounds [1001 x i32], [1001 x i32]* %27, i64 0, i64 %29
  %31 = load i32, i32* %30, align 4
  %32 = icmp eq i32 %31, 0
  br i1 %32, label %33, label %34

33:                                               ; preds = %24
  store i32 1, i32* %5, align 4
  br label %44

34:                                               ; preds = %24
  %35 = load i32, i32* %6, align 4
  %36 = load i32, i32* %8, align 4
  %37 = add nsw i32 %35, %36
  %38 = load i32, i32* %7, align 4
  %39 = load i32, i32* %9, align 4
  %40 = add nsw i32 %38, %39
  %41 = load i32, i32* %8, align 4
  %42 = load i32, i32* %9, align 4
  %43 = call i32 @_Z8zhongliuiiii(i32 %37, i32 %40, i32 %41, i32 %42)
  store i32 %43, i32* %5, align 4
  br label %44

44:                                               ; preds = %34, %33, %23
  %45 = load i32, i32* %5, align 4
  ret i32 %45
}

declare dso_local dereferenceable(272) %"class.std::basic_ostream"* @_ZNSolsEi(%"class.std::basic_ostream"*, i32) #1

; Function Attrs: noinline uwtable
define internal void @_GLOBAL__sub_I_2194.cpp() #0 section ".text.startup" {
  call void @__cxx_global_var_init()
  ret void
}


!llvm.module.flags = !{!0}
!llvm.ident = !{!1}

!0 = !{i32 1, !"wchar_size", i32 4}
!1 = !{!"clang version 10.0.0-4ubuntu1 "}
